target datalayout = "e-m:e-p270:32:32-p271:32:32-p272:64:64-i64:64-i128:128-f80:128-n8:16:32:64-S128"
target triple = "x86_64-pc-linux-gnu"

%struct.loopargs_st = type { ptr, ptr, ptr, ptr, ptr, ptr, ptr, [16 x i8], i64, i64, i64, [7 x ptr], [7 x ptr], [7 x ptr], [7 x ptr], [2 x ptr], [2 x ptr], [22 x ptr], [22 x ptr], [24 x ptr], [2 x ptr], [2 x ptr], [1 x ptr], [1 x ptr], [1 x ptr], ptr, ptr, [24 x i64], [5 x ptr], ptr, ptr, ptr, ptr, [111 x ptr], [111 x ptr], [111 x ptr], [111 x i64], [111 x i64], [111 x ptr], [111 x ptr], [111 x ptr], [111 x ptr], [111 x ptr], [111 x ptr], [111 x i64], [111 x i64], [111 x ptr] }

@bio_err = external global ptr, align 8
@testmode = internal global i32 0, align 4
@testnum = internal global i32 0, align 4
@testmoderesult = internal global i32 0, align 4
@run = internal global i32 0, align 4
@.str.464 = private unnamed_addr constant [25 x i8] c"SM2 verify init failure\0A\00", align 1
@.str.465 = private unnamed_addr constant [20 x i8] c"SM2 verify failure\0A\00", align 1

; Function Attrs: nounwind uwtable
define internal void @dofail() #0 {
  %1 = load ptr, ptr @bio_err, align 8, !tbaa !53
  call void @ERR_print_errors(ptr noundef %1)
  store i32 1, ptr @testmoderesult, align 4, !tbaa !4
  ret void
}

; Function Attrs: nounwind uwtable
define internal i32 @SM2_verify_loop(ptr noundef %0) #0 {
  %2 = alloca ptr, align 8
  %3 = alloca ptr, align 8
  %4 = alloca ptr, align 8
  %5 = alloca ptr, align 8
  %6 = alloca ptr, align 8
  %7 = alloca i64, align 8
  %8 = alloca i32, align 4
  %9 = alloca i32, align 4
  %10 = alloca ptr, align 8
  store ptr %0, ptr %2, align 8, !tbaa !115
  call void @llvm.lifetime.start.p0(i64 8, ptr %3) #11
  %11 = load ptr, ptr %2, align 8, !tbaa !115
  %12 = load ptr, ptr %11, align 8, !tbaa !37
  store ptr %12, ptr %3, align 8, !tbaa !37
  call void @llvm.lifetime.start.p0(i64 8, ptr %4) #11
  %13 = load ptr, ptr %3, align 8, !tbaa !37
  %14 = getelementptr inbounds nuw %struct.loopargs_st, ptr %13, i32 0, i32 2
  %15 = load ptr, ptr %14, align 8, !tbaa !92
  store ptr %15, ptr %4, align 8, !tbaa !39
  call void @llvm.lifetime.start.p0(i64 8, ptr %5) #11
  %16 = load ptr, ptr %3, align 8, !tbaa !37
  %17 = getelementptr inbounds nuw %struct.loopargs_st, ptr %16, i32 0, i32 23
  %18 = getelementptr inbounds [1 x ptr], ptr %17, i64 0, i64 0
  store ptr %18, ptr %5, align 8, !tbaa !285
  call void @llvm.lifetime.start.p0(i64 8, ptr %6) #11
  %19 = load ptr, ptr %3, align 8, !tbaa !37
  %20 = getelementptr inbounds nuw %struct.loopargs_st, ptr %19, i32 0, i32 3
  %21 = load ptr, ptr %20, align 8, !tbaa !93
  store ptr %21, ptr %6, align 8, !tbaa !39
  call void @llvm.lifetime.start.p0(i64 8, ptr %7) #11
  %22 = load ptr, ptr %3, align 8, !tbaa !37
  %23 = getelementptr inbounds nuw %struct.loopargs_st, ptr %22, i32 0, i32 9
  %24 = load i64, ptr %23, align 8, !tbaa !95
  store i64 %24, ptr %7, align 8, !tbaa !50
  call void @llvm.lifetime.start.p0(i64 4, ptr %8) #11
  call void @llvm.lifetime.start.p0(i64 4, ptr %9) #11
  call void @llvm.lifetime.start.p0(i64 8, ptr %10) #11
  %25 = load ptr, ptr %3, align 8, !tbaa !37
  %26 = getelementptr inbounds nuw %struct.loopargs_st, ptr %25, i32 0, i32 24
  %27 = getelementptr inbounds [1 x ptr], ptr %26, i64 0, i64 0
  store ptr %27, ptr %10, align 8, !tbaa !289
  store i32 0, ptr %9, align 4, !tbaa !4
  br label %28

28:                                               ; preds = %72, %1
  %29 = load volatile i32, ptr @run, align 4, !tbaa !4
  %30 = icmp ne i32 %29, 0
  br i1 %30, label %31, label %37

31:                                               ; preds = %28
  %32 = load i32, ptr %9, align 4, !tbaa !4
  %33 = load i32, ptr @testmode, align 4, !tbaa !4
  %34 = icmp ne i32 %33, 0
  %35 = select i1 %34, i32 1, i32 2147483647
  %36 = icmp slt i32 %32, %35
  br label %37

37:                                               ; preds = %31, %28
  %38 = phi i1 [ false, %28 ], [ %36, %31 ]
  br i1 %38, label %39, label %75

39:                                               ; preds = %37
  %40 = load ptr, ptr %5, align 8, !tbaa !285
  %41 = load i32, ptr @testnum, align 4, !tbaa !4
  %42 = zext i32 %41 to i64
  %43 = getelementptr inbounds nuw ptr, ptr %40, i64 %42
  %44 = load ptr, ptr %43, align 8, !tbaa !169
  %45 = call ptr @EVP_sm3()
  %46 = load ptr, ptr %10, align 8, !tbaa !289
  %47 = load i32, ptr @testnum, align 4, !tbaa !4
  %48 = zext i32 %47 to i64
  %49 = getelementptr inbounds nuw ptr, ptr %46, i64 %48
  %50 = load ptr, ptr %49, align 8, !tbaa !8
  %51 = call i32 @EVP_DigestVerifyInit(ptr noundef %44, ptr noundef null, ptr noundef %45, ptr noundef null, ptr noundef %50)
  %52 = icmp ne i32 %51, 0
  br i1 %52, label %56, label %53

53:                                               ; preds = %39
  %54 = load ptr, ptr @bio_err, align 8, !tbaa !53
  %55 = call i32 (ptr, ptr, ...) @BIO_printf(ptr noundef %54, ptr noundef @.str.464)
  call void @dofail()
  store i32 -1, ptr %9, align 4, !tbaa !4
  br label %75

56:                                               ; preds = %39
  %57 = load ptr, ptr %5, align 8, !tbaa !285
  %58 = load i32, ptr @testnum, align 4, !tbaa !4
  %59 = zext i32 %58 to i64
  %60 = getelementptr inbounds nuw ptr, ptr %57, i64 %59
  %61 = load ptr, ptr %60, align 8, !tbaa !169
  %62 = load ptr, ptr %6, align 8, !tbaa !39
  %63 = load i64, ptr %7, align 8, !tbaa !50
  %64 = load ptr, ptr %4, align 8, !tbaa !39
  %65 = call i32 @EVP_DigestVerify(ptr noundef %61, ptr noundef %62, i64 noundef %63, ptr noundef %64, i64 noundef 20)
  store i32 %65, ptr %8, align 4, !tbaa !4
  %66 = load i32, ptr %8, align 4, !tbaa !4
  %67 = icmp ne i32 %66, 1
  br i1 %67, label %68, label %71

68:                                               ; preds = %56
  %69 = load ptr, ptr @bio_err, align 8, !tbaa !53
  %70 = call i32 (ptr, ptr, ...) @BIO_printf(ptr noundef %69, ptr noundef @.str.465)
  call void @dofail()
  store i32 -1, ptr %9, align 4, !tbaa !4
  br label %75

71:                                               ; preds = %56
  br label %72

72:                                               ; preds = %71
  %73 = load i32, ptr %9, align 4, !tbaa !4
  %74 = add nsw i32 %73, 1
  store i32 %74, ptr %9, align 4, !tbaa !4
  br label %28, !llvm.loop !292

75:                                               ; preds = %68, %53, %37
  %76 = load i32, ptr %9, align 4, !tbaa !4
  call void @llvm.lifetime.end.p0(i64 8, ptr %10) #11
  call void @llvm.lifetime.end.p0(i64 4, ptr %9) #11
  call void @llvm.lifetime.end.p0(i64 4, ptr %8) #11
  call void @llvm.lifetime.end.p0(i64 8, ptr %7) #11
  call void @llvm.lifetime.end.p0(i64 8, ptr %6) #11
  call void @llvm.lifetime.end.p0(i64 8, ptr %5) #11
  call void @llvm.lifetime.end.p0(i64 8, ptr %4) #11
  call void @llvm.lifetime.end.p0(i64 8, ptr %3) #11
  ret i32 %76
}