; Function Attrs: nounwind uwtable
define internal i32 @SM2_verify_loop(ptr noundef readonly captures(none) %0) #0 {
  %2 = load ptr, ptr %0, align 8, !tbaa !189
  %3 = getelementptr inbounds nuw i8, ptr %2, i64 16
  %4 = load ptr, ptr %3, align 8, !tbaa !53
  %5 = getelementptr inbounds nuw i8, ptr %2, i64 936
  %6 = getelementptr inbounds nuw i8, ptr %2, i64 24
  %7 = load ptr, ptr %6, align 8, !tbaa !54
  %8 = getelementptr inbounds nuw i8, ptr %2, i64 80
  %9 = load i64, ptr %8, align 8, !tbaa !56
  %10 = getelementptr inbounds nuw i8, ptr %2, i64 944
  %11 = load volatile i32, ptr @run, align 4, !tbaa !13
  %.not19 = icmp eq i32 %11, 0
  br i1 %.not19, label %.critedge, label %.lr.ph

.lr.ph:                                           ; preds = %1, %31
  %.020 = phi i32 [ %32, %31 ], [ 0, %1 ]
  %.b = load i1, ptr @testmode, align 4
  %12 = select i1 %.b, i32 1, i32 2147483647
  %13 = icmp samesign ult i32 %.020, %12
  br i1 %13, label %14, label %.critedge

14:                                               ; preds = %.lr.ph
  %15 = load i32, ptr @testnum, align 4, !tbaa !13
  %16 = zext i32 %15 to i64
  %17 = getelementptr inbounds nuw ptr, ptr %5, i64 %16
  %18 = load ptr, ptr %17, align 8, !tbaa !132
  %19 = tail call ptr @EVP_sm3() #14
  %20 = load i32, ptr @testnum, align 4, !tbaa !13
  %21 = zext i32 %20 to i64
  %22 = getelementptr inbounds nuw ptr, ptr %10, i64 %21
  %23 = load ptr, ptr %22, align 8, !tbaa !4
  %24 = tail call i32 @EVP_DigestVerifyInit(ptr noundef %18, ptr noundef null, ptr noundef %19, ptr noundef null, ptr noundef %23) #14
  %.not15 = icmp eq i32 %24, 0
  br i1 %.not15, label %.critedge.sink.split, label %25

25:                                               ; preds = %14
  %26 = load i32, ptr @testnum, align 4, !tbaa !13
  %27 = zext i32 %26 to i64
  %28 = getelementptr inbounds nuw ptr, ptr %5, i64 %27
  %29 = load ptr, ptr %28, align 8, !tbaa !132
  %30 = tail call i32 @EVP_DigestVerify(ptr noundef %29, ptr noundef %7, i64 noundef %9, ptr noundef %4, i64 noundef 20) #14
  %.not16 = icmp eq i32 %30, 1
  br i1 %.not16, label %31, label %.critedge.sink.split

31:                                               ; preds = %25
  %32 = add nuw nsw i32 %.020, 1
  %33 = load volatile i32, ptr @run, align 4, !tbaa !13
  %.not = icmp eq i32 %33, 0
  br i1 %.not, label %.critedge, label %.lr.ph, !llvm.loop !229

.critedge.sink.split:                             ; preds = %25, %14
  %.str.465.sink = phi ptr [ @.str.464, %14 ], [ @.str.465, %25 ]
  %34 = load ptr, ptr @bio_err, align 8, !tbaa !19
  %35 = tail call i32 (ptr, ptr, ...) @BIO_printf(ptr noundef %34, ptr noundef nonnull %.str.465.sink) #14
  %36 = load ptr, ptr @bio_err, align 8, !tbaa !19
  tail call void @ERR_print_errors(ptr noundef %36) #14
  store i1 true, ptr @testmoderesult, align 4
  br label %.critedge

.critedge:                                        ; preds = %.lr.ph, %31, %.critedge.sink.split, %1
  %.1 = phi i32 [ 0, %1 ], [ -1, %.critedge.sink.split ], [ %.020, %.lr.ph ], [ %32, %31 ]
  ret i32 %.1
}